target datalayout = "e-m:e-p270:32:32-p271:32:32-p272:64:64-i64:64-i128:128-f80:128-n8:16:32:64-S128"
target triple = "x86_64-pc-linux-gnu"

%struct.LogicalRepWorker = type { i32, i64, i8, i16, ptr, i32, i32, i32, i32, i8, i64, i8, ptr, i32, i8, i64, i64, i64, i64, i64 }
%struct.Subscription = type { i32, i32, i64, ptr, i32, i8, i8, i8, i8, i8, i8, i8, i8, i8, ptr, ptr, ptr, ptr, ptr }

@ApplyContext = dso_local global ptr null, align 8
@MySubscription = dso_local global ptr null, align 8
@MyLogicalRepWorker = external global ptr, align 8
@.str.3 = private unnamed_addr constant [9 x i8] c"worker.c\00", align 1
@MySubscriptionValid = internal global i8 0, align 1
@.str.15 = private unnamed_addr constant [19 x i8] c"synchronous_commit\00", align 1
@.str.18 = private unnamed_addr constant [25 x i8] c"session_replication_role\00", align 1
@.str.19 = private unnamed_addr constant [8 x i8] c"replica\00", align 1
@.str.20 = private unnamed_addr constant [12 x i8] c"search_path\00", align 1
@.str.21 = private unnamed_addr constant [1 x i8] zeroinitializer, align 1
@TopMemoryContext = external global ptr, align 8
@.str.22 = private unnamed_addr constant [13 x i8] c"ApplyContext\00", align 1
@.str.23 = private unnamed_addr constant [114 x i8] c"logical replication worker for subscription %u will not start because the subscription was removed during startup\00", align 1
@__func__.InitializeLogRepWorker = private unnamed_addr constant [23 x i8] c"InitializeLogRepWorker\00", align 1
@.str.24 = private unnamed_addr constant [117 x i8] c"logical replication worker for subscription \22%s\22 will not start because the subscription was disabled during startup\00", align 1
@.str.25 = private unnamed_addr constant [95 x i8] c"logical replication table synchronization worker for subscription \22%s\22, table \22%s\22 has started\00", align 1
@.str.26 = private unnamed_addr constant [67 x i8] c"logical replication apply worker for subscription \22%s\22 has started\00", align 1
@CurrentMemoryContext = external global ptr, align 8

; Function Attrs: inlinehint nounwind uwtable
define internal zeroext i1 @am_parallel_apply_worker() #3 {
  %1 = load ptr, ptr @MyLogicalRepWorker, align 8
  %2 = getelementptr inbounds nuw %struct.LogicalRepWorker, ptr %1, i32 0, i32 2
  %3 = load i8, ptr %2, align 8, !range !4, !noundef !5
  %4 = trunc i8 %3 to i1
  br i1 %4, label %5, label %10

5:                                                ; preds = %0
  %6 = load ptr, ptr @MyLogicalRepWorker, align 8
  %7 = getelementptr inbounds nuw %struct.LogicalRepWorker, ptr %6, i32 0, i32 0
  %8 = load i32, ptr %7, align 8
  %9 = icmp eq i32 %8, 3
  br label %10

10:                                               ; preds = %5, %0
  %11 = phi i1 [ false, %0 ], [ %9, %5 ]
  ret i1 %11
}

; Function Attrs: inlinehint nounwind uwtable
define internal zeroext i1 @am_tablesync_worker() #3 {
  %1 = load ptr, ptr @MyLogicalRepWorker, align 8
  %2 = getelementptr inbounds nuw %struct.LogicalRepWorker, ptr %1, i32 0, i32 2
  %3 = load i8, ptr %2, align 8, !range !4, !noundef !5
  %4 = trunc i8 %3 to i1
  br i1 %4, label %5, label %10

5:                                                ; preds = %0
  %6 = load ptr, ptr @MyLogicalRepWorker, align 8
  %7 = getelementptr inbounds nuw %struct.LogicalRepWorker, ptr %6, i32 0, i32 0
  %8 = load i32, ptr %7, align 8
  %9 = icmp eq i32 %8, 1
  br label %10

10:                                               ; preds = %5, %0
  %11 = phi i1 [ false, %0 ], [ %9, %5 ]
  ret i1 %11
}

; Function Attrs: nounwind uwtable
define internal void @apply_worker_exit() #0 {
  %1 = call zeroext i1 @am_parallel_apply_worker()
  br i1 %1, label %2, label %3

2:                                                ; preds = %0
  ret void

3:                                                ; preds = %0
  %4 = call zeroext i1 @am_leader_apply_worker()
  br i1 %4, label %5, label %9

5:                                                ; preds = %3
  %6 = load ptr, ptr @MyLogicalRepWorker, align 8
  %7 = getelementptr inbounds nuw %struct.LogicalRepWorker, ptr %6, i32 0, i32 7
  %8 = load i32, ptr %7, align 8
  call void @ApplyLauncherForgetWorkerStartTime(i32 noundef %8)
  br label %9

9:                                                ; preds = %5, %3
  call void @proc_exit(i32 noundef 0) #14
  unreachable
}

; Function Attrs: inlinehint nounwind uwtable
define internal zeroext i1 @am_leader_apply_worker() #3 {
  %1 = load ptr, ptr @MyLogicalRepWorker, align 8
  %2 = getelementptr inbounds nuw %struct.LogicalRepWorker, ptr %1, i32 0, i32 0
  %3 = load i32, ptr %2, align 8
  %4 = icmp eq i32 %3, 2
  ret i1 %4
}

; Function Attrs: inlinehint nounwind uwtable
define internal ptr @MemoryContextSwitchTo(ptr noundef %0) #3 {
  %2 = alloca ptr, align 8
  %3 = alloca ptr, align 8
  store ptr %0, ptr %2, align 8
  call void @llvm.lifetime.start.p0(i64 8, ptr %3) #12
  %4 = load ptr, ptr @CurrentMemoryContext, align 8
  store ptr %4, ptr %3, align 8
  %5 = load ptr, ptr %2, align 8
  store ptr %5, ptr @CurrentMemoryContext, align 8
  %6 = load ptr, ptr %3, align 8
  call void @llvm.lifetime.end.p0(i64 8, ptr %3) #12
  ret ptr %6
}

; Function Attrs: nounwind uwtable
define dso_local void @InitializeLogRepWorker() #0 {
  %1 = alloca ptr, align 8
  %2 = alloca i32, align 4
  call void @llvm.lifetime.start.p0(i64 8, ptr %1) #12
  call void @SetConfigOption(ptr noundef @.str.18, ptr noundef @.str.19, i32 noundef 5, i32 noundef 10)
  %3 = load ptr, ptr @MyLogicalRepWorker, align 8
  %4 = getelementptr inbounds nuw %struct.LogicalRepWorker, ptr %3, i32 0, i32 5
  %5 = load i32, ptr %4, align 8
  %6 = load ptr, ptr @MyLogicalRepWorker, align 8
  %7 = getelementptr inbounds nuw %struct.LogicalRepWorker, ptr %6, i32 0, i32 6
  %8 = load i32, ptr %7, align 4
  call void @BackgroundWorkerInitializeConnectionByOid(i32 noundef %5, i32 noundef %8, i32 noundef 0)
  call void @SetConfigOption(ptr noundef @.str.20, ptr noundef @.str.21, i32 noundef 5, i32 noundef 10)
  br label %9

9:                                                ; preds = %0
  br label %10

10:                                               ; preds = %9
  br label %11

11:                                               ; preds = %10
  store i32 1, ptr %2, align 4
  %12 = load ptr, ptr @TopMemoryContext, align 8
  %13 = call ptr @AllocSetContextCreateInternal(ptr noundef %12, ptr noundef @.str.22, i64 noundef 0, i64 noundef 8192, i64 noundef 8388608)
  store ptr %13, ptr @ApplyContext, align 8
  call void @StartTransactionCommand()
  %14 = load ptr, ptr @ApplyContext, align 8
  %15 = call ptr @MemoryContextSwitchTo(ptr noundef %14)
  store ptr %15, ptr %1, align 8
  %16 = load ptr, ptr @MyLogicalRepWorker, align 8
  %17 = getelementptr inbounds nuw %struct.LogicalRepWorker, ptr %16, i32 0, i32 7
  %18 = load i32, ptr %17, align 8
  %19 = call ptr @GetSubscription(i32 noundef %18, i1 noundef zeroext true)
  store ptr %19, ptr @MySubscription, align 8
  %20 = load ptr, ptr @MySubscription, align 8
  %21 = icmp ne ptr %20, null
  br i1 %21, label %42, label %22

22:                                               ; preds = %11
  br label %23

23:                                               ; preds = %22
  br i1 false, label %24, label %26

24:                                               ; preds = %23
  %25 = call zeroext i1 @errstart_cold(i32 noundef 15, ptr noundef null) #13
  br i1 %25, label %28, label %33

26:                                               ; preds = %23
  %27 = call zeroext i1 @errstart(i32 noundef 15, ptr noundef null)
  br i1 %27, label %28, label %33

28:                                               ; preds = %26, %24
  %29 = load ptr, ptr @MyLogicalRepWorker, align 8
  %30 = getelementptr inbounds nuw %struct.LogicalRepWorker, ptr %29, i32 0, i32 7
  %31 = load i32, ptr %30, align 8
  %32 = call i32 (ptr, ...) @errmsg(ptr noundef @.str.23, i32 noundef %31)
  call void @errfinish(ptr noundef @.str.3, i32 noundef 4671, ptr noundef @__func__.InitializeLogRepWorker)
  br label %33

33:                                               ; preds = %28, %26, %24
  br label %34

34:                                               ; preds = %33
  br label %35

35:                                               ; preds = %34
  %36 = call zeroext i1 @am_leader_apply_worker()
  br i1 %36, label %37, label %41

37:                                               ; preds = %35
  %38 = load ptr, ptr @MyLogicalRepWorker, align 8
  %39 = getelementptr inbounds nuw %struct.LogicalRepWorker, ptr %38, i32 0, i32 7
  %40 = load i32, ptr %39, align 8
  call void @ApplyLauncherForgetWorkerStartTime(i32 noundef %40)
  br label %41

41:                                               ; preds = %37, %35
  call void @proc_exit(i32 noundef 0) #14
  unreachable

42:                                               ; preds = %11
  store i8 1, ptr @MySubscriptionValid, align 1
  %43 = load ptr, ptr %1, align 8
  %44 = call ptr @MemoryContextSwitchTo(ptr noundef %43)
  %45 = load ptr, ptr @MySubscription, align 8
  %46 = getelementptr inbounds nuw %struct.Subscription, ptr %45, i32 0, i32 6
  %47 = load i8, ptr %46, align 1, !range !4, !noundef !5
  %48 = trunc i8 %47 to i1
  br i1 %48, label %63, label %49

49:                                               ; preds = %42
  br label %50

50:                                               ; preds = %49
  br i1 false, label %51, label %53

51:                                               ; preds = %50
  %52 = call zeroext i1 @errstart_cold(i32 noundef 15, ptr noundef null) #13
  br i1 %52, label %55, label %60

53:                                               ; preds = %50
  %54 = call zeroext i1 @errstart(i32 noundef 15, ptr noundef null)
  br i1 %54, label %55, label %60

55:                                               ; preds = %53, %51
  %56 = load ptr, ptr @MySubscription, align 8
  %57 = getelementptr inbounds nuw %struct.Subscription, ptr %56, i32 0, i32 3
  %58 = load ptr, ptr %57, align 8
  %59 = call i32 (ptr, ...) @errmsg(ptr noundef @.str.24, ptr noundef %58)
  call void @errfinish(ptr noundef @.str.3, i32 noundef 4687, ptr noundef @__func__.InitializeLogRepWorker)
  br label %60

60:                                               ; preds = %55, %53, %51
  br label %61

61:                                               ; preds = %60
  br label %62

62:                                               ; preds = %61
  call void @apply_worker_exit()
  br label %63

63:                                               ; preds = %62, %42
  %64 = load ptr, ptr @MySubscription, align 8
  %65 = getelementptr inbounds nuw %struct.Subscription, ptr %64, i32 0, i32 16
  %66 = load ptr, ptr %65, align 8
  call void @SetConfigOption(ptr noundef @.str.15, ptr noundef %66, i32 noundef 4, i32 noundef 10)
  call void @CacheRegisterSyscacheCallback(i32 noundef 67, ptr noundef @subscription_change_cb, i64 noundef 0)
  call void @CacheRegisterSyscacheCallback(i32 noundef 11, ptr noundef @subscription_change_cb, i64 noundef 0)
  %67 = call zeroext i1 @am_tablesync_worker()
  br i1 %67, label %68, label %86

68:                                               ; preds = %63
  br label %69

69:                                               ; preds = %68
  br i1 false, label %70, label %72

70:                                               ; preds = %69
  %71 = call zeroext i1 @errstart_cold(i32 noundef 15, ptr noundef null) #13
  br i1 %71, label %74, label %83

72:                                               ; preds = %69
  %73 = call zeroext i1 @errstart(i32 noundef 15, ptr noundef null)
  br i1 %73, label %74, label %83

74:                                               ; preds = %72, %70
  %75 = load ptr, ptr @MySubscription, align 8
  %76 = getelementptr inbounds nuw %struct.Subscription, ptr %75, i32 0, i32 3
  %77 = load ptr, ptr %76, align 8
  %78 = load ptr, ptr @MyLogicalRepWorker, align 8
  %79 = getelementptr inbounds nuw %struct.LogicalRepWorker, ptr %78, i32 0, i32 8
  %80 = load i32, ptr %79, align 4
  %81 = call ptr @get_rel_name(i32 noundef %80)
  %82 = call i32 (ptr, ...) @errmsg(ptr noundef @.str.25, ptr noundef %77, ptr noundef %81)
  call void @errfinish(ptr noundef @.str.3, i32 noundef 4712, ptr noundef @__func__.InitializeLogRepWorker)
  br label %83

83:                                               ; preds = %74, %72, %70
  br label %84

84:                                               ; preds = %83
  br label %85

85:                                               ; preds = %84
  br label %100

86:                                               ; preds = %63
  br label %87

87:                                               ; preds = %86
  br i1 false, label %88, label %90

88:                                               ; preds = %87
  %89 = call zeroext i1 @errstart_cold(i32 noundef 15, ptr noundef null) #13
  br i1 %89, label %92, label %97

90:                                               ; preds = %87
  %91 = call zeroext i1 @errstart(i32 noundef 15, ptr noundef null)
  br i1 %91, label %92, label %97

92:                                               ; preds = %90, %88
  %93 = load ptr, ptr @MySubscription, align 8
  %94 = getelementptr inbounds nuw %struct.Subscription, ptr %93, i32 0, i32 3
  %95 = load ptr, ptr %94, align 8
  %96 = call i32 (ptr, ...) @errmsg(ptr noundef @.str.26, ptr noundef %95)
  call void @errfinish(ptr noundef @.str.3, i32 noundef 4716, ptr noundef @__func__.InitializeLogRepWorker)
  br label %97

97:                                               ; preds = %92, %90, %88
  br label %98

98:                                               ; preds = %97
  br label %99

99:                                               ; preds = %98
  br label %100

100:                                              ; preds = %99, %85
  call void @CommitTransactionCommand()
  call void @llvm.lifetime.end.p0(i64 8, ptr %1) #12
  ret void
}