; Function Attrs: nounwind uwtable
define dso_local void @InitializeLogRepWorker() local_unnamed_addr #0 {
  tail call void @SetConfigOption(ptr noundef nonnull @.str.18, ptr noundef nonnull @.str.19, i32 noundef 5, i32 noundef 10) #17
  %1 = load ptr, ptr @MyLogicalRepWorker, align 8
  %2 = getelementptr inbounds nuw i8, ptr %1, i64 32
  %3 = load i32, ptr %2, align 8
  %4 = getelementptr inbounds nuw i8, ptr %1, i64 36
  %5 = load i32, ptr %4, align 4
  tail call void @BackgroundWorkerInitializeConnectionByOid(i32 noundef %3, i32 noundef %5, i32 noundef 0) #17
  tail call void @SetConfigOption(ptr noundef nonnull @.str.20, ptr noundef nonnull @.str.21, i32 noundef 5, i32 noundef 10) #17
  %6 = load ptr, ptr @TopMemoryContext, align 8
  %7 = tail call ptr @AllocSetContextCreateInternal(ptr noundef %6, ptr noundef nonnull @.str.22, i64 noundef 0, i64 noundef 8192, i64 noundef 8388608) #17
  store ptr %7, ptr @ApplyContext, align 8
  tail call void @StartTransactionCommand() #17
  %8 = load ptr, ptr @ApplyContext, align 8
  %9 = load ptr, ptr @CurrentMemoryContext, align 8
  store ptr %8, ptr @CurrentMemoryContext, align 8
  %10 = load ptr, ptr @MyLogicalRepWorker, align 8
  %11 = getelementptr inbounds nuw i8, ptr %10, i64 40
  %12 = load i32, ptr %11, align 8
  %13 = tail call ptr @GetSubscription(i32 noundef %12, i1 noundef zeroext true) #17
  store ptr %13, ptr @MySubscription, align 8
  %.not = icmp eq ptr %13, null
  br i1 %.not, label %14, label %29

14:                                               ; preds = %0
  %15 = tail call zeroext i1 @errstart(i32 noundef 15, ptr noundef null) #17
  br i1 %15, label %16, label %21

16:                                               ; preds = %14
  %17 = load ptr, ptr @MyLogicalRepWorker, align 8
  %18 = getelementptr inbounds nuw i8, ptr %17, i64 40
  %19 = load i32, ptr %18, align 8
  %20 = tail call i32 (ptr, ...) @errmsg(ptr noundef nonnull @.str.23, i32 noundef %19) #17
  tail call void @errfinish(ptr noundef nonnull @.str.3, i32 noundef 4671, ptr noundef nonnull @__func__.InitializeLogRepWorker) #17
  br label %21

21:                                               ; preds = %16, %14
  %22 = load ptr, ptr @MyLogicalRepWorker, align 8
  %23 = load i32, ptr %22, align 8
  %24 = icmp eq i32 %23, 2
  br i1 %24, label %25, label %28

25:                                               ; preds = %21
  %26 = getelementptr inbounds nuw i8, ptr %22, i64 40
  %27 = load i32, ptr %26, align 8
  tail call void @ApplyLauncherForgetWorkerStartTime(i32 noundef %27) #17
  br label %28

28:                                               ; preds = %25, %21
  tail call void @proc_exit(i32 noundef 0) #19
  unreachable

29:                                               ; preds = %0
  store i1 true, ptr @MySubscriptionValid, align 1
  store ptr %9, ptr @CurrentMemoryContext, align 8
  %30 = getelementptr inbounds nuw i8, ptr %13, i64 29
  %31 = load i8, ptr %30, align 1, !range !4, !noundef !5
  %32 = trunc nuw i8 %31 to i1
  br i1 %32, label %apply_worker_exit.exit, label %33

33:                                               ; preds = %29
  %34 = tail call zeroext i1 @errstart(i32 noundef 15, ptr noundef null) #17
  br i1 %34, label %35, label %40

35:                                               ; preds = %33
  %36 = load ptr, ptr @MySubscription, align 8
  %37 = getelementptr inbounds nuw i8, ptr %36, i64 16
  %38 = load ptr, ptr %37, align 8
  %39 = tail call i32 (ptr, ...) @errmsg(ptr noundef nonnull @.str.24, ptr noundef %38) #17
  tail call void @errfinish(ptr noundef nonnull @.str.3, i32 noundef 4687, ptr noundef nonnull @__func__.InitializeLogRepWorker) #17
  br label %40

40:                                               ; preds = %35, %33
  %41 = load ptr, ptr @MyLogicalRepWorker, align 8
  %42 = getelementptr inbounds nuw i8, ptr %41, i64 16
  %43 = load i8, ptr %42, align 8, !range !4, !noundef !5
  %44 = trunc nuw i8 %43 to i1
  %45 = load i32, ptr %41, align 8
  %46 = icmp eq i32 %45, 3
  %or.cond.i = select i1 %44, i1 %46, i1 false
  br i1 %or.cond.i, label %.apply_worker_exit.exit_crit_edge, label %am_parallel_apply_worker.exit.thread.i

.apply_worker_exit.exit_crit_edge:                ; preds = %40
  %.pre = load ptr, ptr @MySubscription, align 8
  br label %apply_worker_exit.exit

am_parallel_apply_worker.exit.thread.i:           ; preds = %40
  %47 = icmp eq i32 %45, 2
  br i1 %47, label %48, label %51

48:                                               ; preds = %am_parallel_apply_worker.exit.thread.i
  %49 = getelementptr inbounds nuw i8, ptr %41, i64 40
  %50 = load i32, ptr %49, align 8
  tail call void @ApplyLauncherForgetWorkerStartTime(i32 noundef %50) #17
  br label %51

51:                                               ; preds = %48, %am_parallel_apply_worker.exit.thread.i
  tail call void @proc_exit(i32 noundef 0) #19
  unreachable

apply_worker_exit.exit:                           ; preds = %.apply_worker_exit.exit_crit_edge, %29
  %52 = phi ptr [ %.pre, %.apply_worker_exit.exit_crit_edge ], [ %13, %29 ]
  %53 = getelementptr inbounds nuw i8, ptr %52, i64 56
  %54 = load ptr, ptr %53, align 8
  tail call void @SetConfigOption(ptr noundef nonnull @.str.15, ptr noundef %54, i32 noundef 4, i32 noundef 10) #17
  tail call void @CacheRegisterSyscacheCallback(i32 noundef 67, ptr noundef nonnull @subscription_change_cb, i64 noundef 0) #17
  tail call void @CacheRegisterSyscacheCallback(i32 noundef 11, ptr noundef nonnull @subscription_change_cb, i64 noundef 0) #17
  %55 = load ptr, ptr @MyLogicalRepWorker, align 8
  %56 = getelementptr inbounds nuw i8, ptr %55, i64 16
  %57 = load i8, ptr %56, align 8, !range !4, !noundef !5
  %58 = trunc nuw i8 %57 to i1
  br i1 %58, label %am_tablesync_worker.exit, label %am_tablesync_worker.exit.thread

am_tablesync_worker.exit:                         ; preds = %apply_worker_exit.exit
  %59 = load i32, ptr %55, align 8
  %60 = icmp eq i32 %59, 1
  br i1 %60, label %61, label %am_tablesync_worker.exit.thread

61:                                               ; preds = %am_tablesync_worker.exit
  %62 = tail call zeroext i1 @errstart(i32 noundef 15, ptr noundef null) #17
  br i1 %62, label %63, label %78

63:                                               ; preds = %61
  %64 = load ptr, ptr @MySubscription, align 8
  %65 = getelementptr inbounds nuw i8, ptr %64, i64 16
  %66 = load ptr, ptr %65, align 8
  %67 = load ptr, ptr @MyLogicalRepWorker, align 8
  %68 = getelementptr inbounds nuw i8, ptr %67, i64 44
  %69 = load i32, ptr %68, align 4
  %70 = tail call ptr @get_rel_name(i32 noundef %69) #17
  %71 = tail call i32 (ptr, ...) @errmsg(ptr noundef nonnull @.str.25, ptr noundef %66, ptr noundef %70) #17
  br label %.sink.split

am_tablesync_worker.exit.thread:                  ; preds = %apply_worker_exit.exit, %am_tablesync_worker.exit
  %72 = tail call zeroext i1 @errstart(i32 noundef 15, ptr noundef null) #17
  br i1 %72, label %73, label %78

73:                                               ; preds = %am_tablesync_worker.exit.thread
  %74 = load ptr, ptr @MySubscription, align 8
  %75 = getelementptr inbounds nuw i8, ptr %74, i64 16
  %76 = load ptr, ptr %75, align 8
  %77 = tail call i32 (ptr, ...) @errmsg(ptr noundef nonnull @.str.26, ptr noundef %76) #17
  br label %.sink.split

.sink.split:                                      ; preds = %63, %73
  %.sink = phi i32 [ 4716, %73 ], [ 4712, %63 ]
  tail call void @errfinish(ptr noundef nonnull @.str.3, i32 noundef %.sink, ptr noundef nonnull @__func__.InitializeLogRepWorker) #17
  br label %78

78:                                               ; preds = %.sink.split, %am_tablesync_worker.exit.thread, %61
  tail call void @CommitTransactionCommand() #17
  ret void
}